target datalayout = "e-m:e-p270:32:32-p271:32:32-p272:64:64-i64:64-i128:128-f80:128-n8:16:32:64-S128"
target triple = "x86_64-pc-linux-gnu"

@hf_tls_handshake_npn_selected_protocol_len = internal global i32 0, align 4
@hf_tls_handshake_npn_selected_protocol = internal global i32 0, align 4
@hf_tls_handshake_npn_padding_len = internal global i32 0, align 4
@hf_tls_handshake_npn_padding = internal global i32 0, align 4

; Function Attrs: null_pointer_is_valid sspstrong uwtable
define internal void @dissect_ssl3_hnd_encrypted_exts(ptr noundef %0, ptr noundef %1, i32 noundef %2) #0 {
  %4 = alloca ptr, align 8
  %5 = alloca ptr, align 8
  %6 = alloca i32, align 4
  %7 = alloca i8, align 1
  %8 = alloca i8, align 1
  store ptr %0, ptr %4, align 8
  store ptr %1, ptr %5, align 8
  store i32 %2, ptr %6, align 4
  call void @llvm.lifetime.start.p0(i64 1, ptr %7) #18
  call void @llvm.lifetime.start.p0(i64 1, ptr %8) #18
  %9 = load ptr, ptr %4, align 8
  %10 = load i32, ptr %6, align 4
  %11 = call zeroext i8 @tvb_get_uint8(ptr noundef %9, i32 noundef %10)
  store i8 %11, ptr %7, align 1
  %12 = load ptr, ptr %5, align 8
  %13 = load i32, ptr @hf_tls_handshake_npn_selected_protocol_len, align 4
  %14 = load ptr, ptr %4, align 8
  %15 = load i32, ptr %6, align 4
  %16 = call ptr @proto_tree_add_item(ptr noundef %12, i32 noundef %13, ptr noundef %14, i32 noundef %15, i32 noundef 1, i32 noundef 0)
  %17 = load i32, ptr %6, align 4
  %18 = add i32 %17, 1
  store i32 %18, ptr %6, align 4
  %19 = load ptr, ptr %5, align 8
  %20 = load i32, ptr @hf_tls_handshake_npn_selected_protocol, align 4
  %21 = load ptr, ptr %4, align 8
  %22 = load i32, ptr %6, align 4
  %23 = load i8, ptr %7, align 1
  %24 = zext i8 %23 to i32
  %25 = call ptr @proto_tree_add_item(ptr noundef %19, i32 noundef %20, ptr noundef %21, i32 noundef %22, i32 noundef %24, i32 noundef 0)
  %26 = load i8, ptr %7, align 1
  %27 = zext i8 %26 to i32
  %28 = load i32, ptr %6, align 4
  %29 = add i32 %28, %27
  store i32 %29, ptr %6, align 4
  %30 = load ptr, ptr %4, align 8
  %31 = load i32, ptr %6, align 4
  %32 = call zeroext i8 @tvb_get_uint8(ptr noundef %30, i32 noundef %31)
  store i8 %32, ptr %8, align 1
  %33 = load ptr, ptr %5, align 8
  %34 = load i32, ptr @hf_tls_handshake_npn_padding_len, align 4
  %35 = load ptr, ptr %4, align 8
  %36 = load i32, ptr %6, align 4
  %37 = call ptr @proto_tree_add_item(ptr noundef %33, i32 noundef %34, ptr noundef %35, i32 noundef %36, i32 noundef 1, i32 noundef 0)
  %38 = load i32, ptr %6, align 4
  %39 = add i32 %38, 1
  store i32 %39, ptr %6, align 4
  %40 = load ptr, ptr %5, align 8
  %41 = load i32, ptr @hf_tls_handshake_npn_padding, align 4
  %42 = load ptr, ptr %4, align 8
  %43 = load i32, ptr %6, align 4
  %44 = load i8, ptr %8, align 1
  %45 = zext i8 %44 to i32
  %46 = call ptr @proto_tree_add_item(ptr noundef %40, i32 noundef %41, ptr noundef %42, i32 noundef %43, i32 noundef %45, i32 noundef 0)
  call void @llvm.lifetime.end.p0(i64 1, ptr %8) #18
  call void @llvm.lifetime.end.p0(i64 1, ptr %7) #18
  ret void
}