; Function Attrs: null_pointer_is_valid sspstrong uwtable
define internal fastcc void @dissect_ssl3_hnd_encrypted_exts(ptr noundef %0, ptr noundef %1, i32 noundef %2) unnamed_addr #0 {
  %4 = tail call zeroext i8 @tvb_get_uint8(ptr noundef %0, i32 noundef %2)
  %5 = load i32, ptr @hf_tls_handshake_npn_selected_protocol_len, align 4
  %6 = tail call ptr @proto_tree_add_item(ptr noundef %1, i32 noundef %5, ptr noundef %0, i32 noundef %2, i32 noundef 1, i32 noundef 0)
  %7 = add i32 %2, 1
  %8 = load i32, ptr @hf_tls_handshake_npn_selected_protocol, align 4
  %9 = zext i8 %4 to i32
  %10 = tail call ptr @proto_tree_add_item(ptr noundef %1, i32 noundef %8, ptr noundef %0, i32 noundef %7, i32 noundef %9, i32 noundef 0)
  %11 = add i32 %7, %9
  %12 = tail call zeroext i8 @tvb_get_uint8(ptr noundef %0, i32 noundef %11)
  %13 = load i32, ptr @hf_tls_handshake_npn_padding_len, align 4
  %14 = tail call ptr @proto_tree_add_item(ptr noundef %1, i32 noundef %13, ptr noundef %0, i32 noundef %11, i32 noundef 1, i32 noundef 0)
  %15 = add i32 %11, 1
  %16 = load i32, ptr @hf_tls_handshake_npn_padding, align 4
  %17 = zext i8 %12 to i32
  %18 = tail call ptr @proto_tree_add_item(ptr noundef %1, i32 noundef %16, ptr noundef %0, i32 noundef %15, i32 noundef %17, i32 noundef 0)
  ret void
}